target datalayout = "e-m:e-p270:32:32-p271:32:32-p272:64:64-i64:64-i128:128-f80:128-n8:16:32:64-S128"
target triple = "x86_64-unknown-linux-gnu"

%struct.OptsVisitor = type { %struct.Visitor, ptr, i32, ptr, i32, ptr, %union.anon, %union.anon, ptr }
%struct.Visitor = type { ptr, ptr, ptr, ptr, ptr, ptr, ptr, ptr, ptr, ptr, ptr, ptr, ptr, ptr, ptr, ptr, ptr, ptr, ptr, ptr, i32, %struct.CompatPolicy, ptr, ptr }
%struct.CompatPolicy = type { i8, i32, i8, i32, i8, i32, i8, i32 }
%union.anon = type { i64 }

@.str.1 = private unnamed_addr constant [28 x i8] c"../qemu/qapi/opts-visitor.c\00", align 1
@.str.15 = private unnamed_addr constant [32 x i8] c"ov->list_mode == LM_IN_PROGRESS\00", align 1
@__PRETTY_FUNCTION__.processed = private unnamed_addr constant [44 x i8] c"void processed(OptsVisitor *, const char *)\00", align 1

; Function Attrs: nounwind sspstrong uwtable
define internal void @processed(ptr noundef %ov, ptr noundef %name) #0 {
entry:
  %ov.addr = alloca ptr, align 8
  %name.addr = alloca ptr, align 8
  store ptr %ov, ptr %ov.addr, align 8
  store ptr %name, ptr %name.addr, align 8
  %0 = load ptr, ptr %ov.addr, align 8
  %list_mode = getelementptr inbounds %struct.OptsVisitor, ptr %0, i32 0, i32 4
  %1 = load i32, ptr %list_mode, align 8
  %cmp = icmp eq i32 %1, 0
  br i1 %cmp, label %if.then, label %if.end

if.then:                                          ; preds = %entry
  %2 = load ptr, ptr %ov.addr, align 8
  %unprocessed_opts = getelementptr inbounds %struct.OptsVisitor, ptr %2, i32 0, i32 3
  %3 = load ptr, ptr %unprocessed_opts, align 8
  %4 = load ptr, ptr %name.addr, align 8
  %call = call i32 @g_hash_table_remove(ptr noundef %3, ptr noundef %4)
  br label %if.end4

if.end:                                           ; preds = %entry
  %5 = load ptr, ptr %ov.addr, align 8
  %list_mode1 = getelementptr inbounds %struct.OptsVisitor, ptr %5, i32 0, i32 4
  %6 = load i32, ptr %list_mode1, align 8
  %cmp2 = icmp eq i32 %6, 1
  br i1 %cmp2, label %if.then3, label %if.else

if.then3:                                         ; preds = %if.end
  br label %if.end4

if.else:                                          ; preds = %if.end
  call void @__assert_fail(ptr noundef @.str.15, ptr noundef @.str.1, i32 noundef 344, ptr noundef @__PRETTY_FUNCTION__.processed) #7
  unreachable

if.end4:                                          ; preds = %if.then3, %if.then
  ret void
}