; Function Attrs: nounwind sspstrong uwtable
define internal fastcc void @processed(ptr noundef readonly captures(none) %ov, ptr noundef %name) unnamed_addr #0 {
entry:
  %list_mode = getelementptr inbounds nuw i8, ptr %ov, i64 240
  %0 = load i32, ptr %list_mode, align 8
  switch i32 %0, label %if.else [
    i32 0, label %if.then
    i32 1, label %if.end4
  ]

if.then:                                          ; preds = %entry
  %unprocessed_opts = getelementptr inbounds nuw i8, ptr %ov, i64 232
  %1 = load ptr, ptr %unprocessed_opts, align 8
  %call = tail call i32 @g_hash_table_remove(ptr noundef %1, ptr noundef %name) #10
  br label %if.end4

if.else:                                          ; preds = %entry
  tail call void @__assert_fail(ptr noundef nonnull @.str.15, ptr noundef nonnull @.str.1, i32 noundef 344, ptr noundef nonnull @__PRETTY_FUNCTION__.processed) #8
  unreachable

if.end4:                                          ; preds = %entry, %if.then
  ret void
}